; Function Attrs: mustprogress nounwind uwtable
define hidden void @_ZN9JavaCalls12call_specialEP9JavaValue6HandleP5KlassP6SymbolS6_S2_S2_P10JavaThread(ptr noundef %0, ptr %1, ptr noundef %2, ptr noundef %3, ptr noundef %4, ptr %5, i64 %6, ptr noundef %7) local_unnamed_addr #0 align 2 {
  %9 = alloca %class.JavaCallArguments, align 8
  %10 = getelementptr inbounds i8, ptr %9, i64 120
  store ptr null, ptr %10, align 8
  %11 = getelementptr inbounds i8, ptr %9, i64 8
  %12 = getelementptr inbounds i8, ptr %9, i64 88
  store ptr %11, ptr %12, align 8
  %13 = getelementptr inbounds i8, ptr %9, i64 73
  %14 = getelementptr inbounds i8, ptr %9, i64 96
  store ptr %13, ptr %14, align 8
  %15 = getelementptr inbounds i8, ptr %9, i64 108
  store i32 8, ptr %15, align 4
  %16 = getelementptr inbounds i8, ptr %9, i64 104
  %17 = getelementptr inbounds i8, ptr %9, i64 112
  store i8 0, ptr %17, align 8
  store i8 2, ptr %13, align 1
  %18 = ptrtoint ptr %1 to i64
  store i64 %18, ptr %11, align 8
  %19 = getelementptr inbounds i8, ptr %9, i64 74
  store i8 2, ptr %19, align 2
  %20 = ptrtoint ptr %5 to i64
  %21 = getelementptr inbounds i8, ptr %9, i64 16
  store i64 %20, ptr %21, align 8
  %22 = getelementptr inbounds i8, ptr %9, i64 75
  store i8 2, ptr %22, align 1
  store i32 3, ptr %16, align 8
  %23 = getelementptr inbounds i8, ptr %9, i64 24
  store i64 %6, ptr %23, align 8
  call void @_ZN9JavaCalls12call_specialEP9JavaValueP5KlassP6SymbolS5_P17JavaCallArgumentsP10JavaThread(ptr noundef %0, ptr noundef %2, ptr noundef %3, ptr noundef %4, ptr noundef nonnull %9, ptr noundef %7)
  ret void
}